target datalayout = "e-m:e-p270:32:32-p271:32:32-p272:64:64-i64:64-i128:128-f80:128-n8:16:32:64-S128"
target triple = "x86_64-pc-linux-gnu"

%struct.MatchState = type { ptr, ptr, ptr, i32, [32 x %struct.anon] }
%struct.anon = type { ptr, i64 }

@.str.26 = private unnamed_addr constant [22 x i8] c"invalid capture index\00", align 1
@.str.27 = private unnamed_addr constant [19 x i8] c"unfinished capture\00", align 1

; Function Attrs: nounwind uwtable
define internal void @push_onecapture(ptr noundef %0, i32 noundef %1, ptr noundef %2, ptr noundef %3) #0 {
  %5 = alloca ptr, align 8
  %6 = alloca i32, align 4
  %7 = alloca ptr, align 8
  %8 = alloca ptr, align 8
  %9 = alloca i64, align 8
  store ptr %0, ptr %5, align 8, !tbaa !37
  store i32 %1, ptr %6, align 4, !tbaa !13
  store ptr %2, ptr %7, align 8, !tbaa !9
  store ptr %3, ptr %8, align 8, !tbaa !9
  %10 = load i32, ptr %6, align 4, !tbaa !13
  %11 = load ptr, ptr %5, align 8, !tbaa !37
  %12 = getelementptr inbounds nuw %struct.MatchState, ptr %11, i32 0, i32 3
  %13 = load i32, ptr %12, align 8, !tbaa !26
  %14 = icmp sge i32 %10, %13
  br i1 %14, label %15, label %34

15:                                               ; preds = %4
  %16 = load i32, ptr %6, align 4, !tbaa !13
  %17 = icmp eq i32 %16, 0
  br i1 %17, label %18, label %28

18:                                               ; preds = %15
  %19 = load ptr, ptr %5, align 8, !tbaa !37
  %20 = getelementptr inbounds nuw %struct.MatchState, ptr %19, i32 0, i32 2
  %21 = load ptr, ptr %20, align 8, !tbaa !22
  %22 = load ptr, ptr %7, align 8, !tbaa !9
  %23 = load ptr, ptr %8, align 8, !tbaa !9
  %24 = load ptr, ptr %7, align 8, !tbaa !9
  %25 = ptrtoint ptr %23 to i64
  %26 = ptrtoint ptr %24 to i64
  %27 = sub i64 %25, %26
  call void @lua_pushlstring(ptr noundef %21, ptr noundef %22, i64 noundef %27)
  br label %33

28:                                               ; preds = %15
  %29 = load ptr, ptr %5, align 8, !tbaa !37
  %30 = getelementptr inbounds nuw %struct.MatchState, ptr %29, i32 0, i32 2
  %31 = load ptr, ptr %30, align 8, !tbaa !22
  %32 = call i32 (ptr, ptr, ...) @luaL_error(ptr noundef %31, ptr noundef @.str.26)
  br label %33

33:                                               ; preds = %28, %18
  br label %83

34:                                               ; preds = %4
  call void @llvm.lifetime.start.p0(i64 8, ptr %9) #8
  %35 = load ptr, ptr %5, align 8, !tbaa !37
  %36 = getelementptr inbounds nuw %struct.MatchState, ptr %35, i32 0, i32 4
  %37 = load i32, ptr %6, align 4, !tbaa !13
  %38 = sext i32 %37 to i64
  %39 = getelementptr inbounds [32 x %struct.anon], ptr %36, i64 0, i64 %38
  %40 = getelementptr inbounds nuw %struct.anon, ptr %39, i32 0, i32 1
  %41 = load i64, ptr %40, align 8, !tbaa !46
  store i64 %41, ptr %9, align 8, !tbaa !11
  %42 = load i64, ptr %9, align 8, !tbaa !11
  %43 = icmp eq i64 %42, -1
  br i1 %43, label %44, label %49

44:                                               ; preds = %34
  %45 = load ptr, ptr %5, align 8, !tbaa !37
  %46 = getelementptr inbounds nuw %struct.MatchState, ptr %45, i32 0, i32 2
  %47 = load ptr, ptr %46, align 8, !tbaa !22
  %48 = call i32 (ptr, ptr, ...) @luaL_error(ptr noundef %47, ptr noundef @.str.27)
  br label %49

49:                                               ; preds = %44, %34
  %50 = load i64, ptr %9, align 8, !tbaa !11
  %51 = icmp eq i64 %50, -2
  br i1 %51, label %52, label %70

52:                                               ; preds = %49
  %53 = load ptr, ptr %5, align 8, !tbaa !37
  %54 = getelementptr inbounds nuw %struct.MatchState, ptr %53, i32 0, i32 2
  %55 = load ptr, ptr %54, align 8, !tbaa !22
  %56 = load ptr, ptr %5, align 8, !tbaa !37
  %57 = getelementptr inbounds nuw %struct.MatchState, ptr %56, i32 0, i32 4
  %58 = load i32, ptr %6, align 4, !tbaa !13
  %59 = sext i32 %58 to i64
  %60 = getelementptr inbounds [32 x %struct.anon], ptr %57, i64 0, i64 %59
  %61 = getelementptr inbounds nuw %struct.anon, ptr %60, i32 0, i32 0
  %62 = load ptr, ptr %61, align 8, !tbaa !44
  %63 = load ptr, ptr %5, align 8, !tbaa !37
  %64 = getelementptr inbounds nuw %struct.MatchState, ptr %63, i32 0, i32 0
  %65 = load ptr, ptr %64, align 8, !tbaa !24
  %66 = ptrtoint ptr %62 to i64
  %67 = ptrtoint ptr %65 to i64
  %68 = sub i64 %66, %67
  %69 = add nsw i64 %68, 1
  call void @lua_pushinteger(ptr noundef %55, i64 noundef %69)
  br label %82

70:                                               ; preds = %49
  %71 = load ptr, ptr %5, align 8, !tbaa !37
  %72 = getelementptr inbounds nuw %struct.MatchState, ptr %71, i32 0, i32 2
  %73 = load ptr, ptr %72, align 8, !tbaa !22
  %74 = load ptr, ptr %5, align 8, !tbaa !37
  %75 = getelementptr inbounds nuw %struct.MatchState, ptr %74, i32 0, i32 4
  %76 = load i32, ptr %6, align 4, !tbaa !13
  %77 = sext i32 %76 to i64
  %78 = getelementptr inbounds [32 x %struct.anon], ptr %75, i64 0, i64 %77
  %79 = getelementptr inbounds nuw %struct.anon, ptr %78, i32 0, i32 0
  %80 = load ptr, ptr %79, align 8, !tbaa !44
  %81 = load i64, ptr %9, align 8, !tbaa !11
  call void @lua_pushlstring(ptr noundef %73, ptr noundef %80, i64 noundef %81)
  br label %82

82:                                               ; preds = %70, %52
  call void @llvm.lifetime.end.p0(i64 8, ptr %9) #8
  br label %83

83:                                               ; preds = %82, %33
  ret void
}