; Function Attrs: nounwind uwtable
define internal fastcc void @push_onecapture(ptr noundef nonnull readonly captures(none) %0, i32 noundef %1, ptr noundef %2, ptr noundef %3) unnamed_addr #0 {
  %5 = getelementptr inbounds nuw i8, ptr %0, i64 24
  %6 = load i32, ptr %5, align 8, !tbaa !29
  %.not = icmp slt i32 %1, %6
  br i1 %.not, label %17, label %7

7:                                                ; preds = %4
  %8 = icmp eq i32 %1, 0
  %9 = getelementptr inbounds nuw i8, ptr %0, i64 16
  %10 = load ptr, ptr %9, align 8, !tbaa !25
  br i1 %8, label %11, label %15

11:                                               ; preds = %7
  %12 = ptrtoint ptr %3 to i64
  %13 = ptrtoint ptr %2 to i64
  %14 = sub i64 %12, %13
  tail call void @lua_pushlstring(ptr noundef %10, ptr noundef %2, i64 noundef %14) #10
  br label %40

15:                                               ; preds = %7
  %16 = tail call i32 (ptr, ptr, ...) @luaL_error(ptr noundef %10, ptr noundef nonnull @.str.26) #10
  br label %40

17:                                               ; preds = %4
  %18 = getelementptr inbounds nuw i8, ptr %0, i64 32
  %19 = sext i32 %1 to i64
  %20 = getelementptr inbounds [32 x %struct.anon], ptr %18, i64 0, i64 %19
  %21 = getelementptr inbounds nuw i8, ptr %20, i64 8
  %22 = load i64, ptr %21, align 8, !tbaa !32
  switch i64 %22, label %36 [
    i64 -1, label %23
    i64 -2, label %27
  ]

23:                                               ; preds = %17
  %24 = getelementptr inbounds nuw i8, ptr %0, i64 16
  %25 = load ptr, ptr %24, align 8, !tbaa !25
  %26 = tail call i32 (ptr, ptr, ...) @luaL_error(ptr noundef %25, ptr noundef nonnull @.str.27) #10
  br label %36

27:                                               ; preds = %17
  %28 = getelementptr inbounds nuw i8, ptr %0, i64 16
  %29 = load ptr, ptr %28, align 8, !tbaa !25
  %30 = load ptr, ptr %20, align 8, !tbaa !34
  %31 = load ptr, ptr %0, align 8, !tbaa !27
  %32 = ptrtoint ptr %30 to i64
  %33 = ptrtoint ptr %31 to i64
  %34 = add i64 %32, 1
  %35 = sub i64 %34, %33
  tail call void @lua_pushinteger(ptr noundef %29, i64 noundef %35) #10
  br label %40

36:                                               ; preds = %23, %17
  %37 = getelementptr inbounds nuw i8, ptr %0, i64 16
  %38 = load ptr, ptr %37, align 8, !tbaa !25
  %39 = load ptr, ptr %20, align 8, !tbaa !34
  tail call void @lua_pushlstring(ptr noundef %38, ptr noundef %39, i64 noundef %22) #10
  br label %40

40:                                               ; preds = %27, %36, %11, %15
  ret void
}